target datalayout = "e-m:e-p270:32:32-p271:32:32-p272:64:64-i64:64-i128:128-f80:128-n8:16:32:64-S128"
target triple = "x86_64-pc-linux-gnu"

%struct.AVIOInterruptCB = type { ptr, ptr }
%struct.Muxer = type { %struct.OutputFile, [32 x i8], ptr, ptr, i32, ptr, i32, ptr, ptr, i64, i64, i32, ptr, ptr }
%struct.OutputFile = type { ptr, i32, ptr, ptr, i32, i64, i64, i32 }
%struct.AVFormatContext = type { ptr, ptr, ptr, ptr, ptr, i32, i32, ptr, i32, ptr, i32, ptr, ptr, i64, i64, i64, i32, i32, i32, i64, i64, ptr, i32, i32, ptr, i32, i32, i32, i32, ptr, i64, i32, i32, %struct.AVIOInterruptCB, i32, i32, i32, i32, i64, i32, i32, i32, i32, i32, i32, i32, i32, i32, i32, i32, i32, i64, i32, i32, i32, i32, i32, ptr, ptr, ptr, ptr, i32, ptr, ptr, ptr, ptr, i32, ptr, ptr, i64, ptr, ptr, ptr, i64 }
%struct.AVRational = type { i32, i32 }
%struct.InputStream = type { ptr, ptr, i32, ptr, i32, ptr, ptr, ptr, %struct.AVRational, i32, i32, ptr, i32 }
%struct.InputFile = type { ptr, i32, ptr, i64, i32, i64, i64, i64, ptr, i32 }
%struct.AVStream = type { ptr, i32, i32, ptr, ptr, %struct.AVRational, i64, i64, i64, i32, i32, %struct.AVRational, ptr, %struct.AVRational, %struct.AVPacket, i32, %struct.AVRational, i32 }
%struct.AVPacket = type { ptr, i64, i64, ptr, i32, i32, i32, ptr, i32, i64, i64, ptr, ptr, %struct.AVRational }
%struct.AVChannelLayout = type { i32, i32, %union.anon, ptr }
%union.anon = type { i64 }
%struct.AVCodecParameters = type { i32, i32, i32, ptr, i32, ptr, i32, i32, i64, i32, i32, i32, i32, i32, i32, %struct.AVRational, %struct.AVRational, i32, i32, i32, i32, i32, i32, i32, %struct.AVChannelLayout, i32, i32, i32, i32, i32, i32 }

@nb_input_files = external global i32, align 4
@input_files = external global ptr, align 8

; Function Attrs: nounwind uwtable
define internal i32 @map_auto_audio(ptr noundef %0, ptr noundef %1) #0 {
  %3 = alloca i32, align 4
  %4 = alloca ptr, align 8
  %5 = alloca ptr, align 8
  %6 = alloca ptr, align 8
  %7 = alloca ptr, align 8
  %8 = alloca i32, align 4
  %9 = alloca i32, align 4
  %10 = alloca i32, align 4
  %11 = alloca ptr, align 8
  %12 = alloca ptr, align 8
  %13 = alloca i32, align 4
  %14 = alloca i32, align 4
  %15 = alloca ptr, align 8
  %16 = alloca i32, align 4
  store ptr %0, ptr %4, align 8, !tbaa !34
  store ptr %1, ptr %5, align 8, !tbaa !13
  call void @llvm.lifetime.start.p0(i64 8, ptr %6) #12
  %17 = load ptr, ptr %4, align 8, !tbaa !34
  %18 = getelementptr inbounds nuw %struct.Muxer, ptr %17, i32 0, i32 2
  %19 = load ptr, ptr %18, align 8, !tbaa !58
  store ptr %19, ptr %6, align 8, !tbaa !57
  call void @llvm.lifetime.start.p0(i64 8, ptr %7) #12
  store ptr null, ptr %7, align 8, !tbaa !255
  call void @llvm.lifetime.start.p0(i64 4, ptr %8) #12
  store i32 0, ptr %8, align 4, !tbaa !4
  %20 = load ptr, ptr %6, align 8, !tbaa !57
  %21 = getelementptr inbounds nuw %struct.AVFormatContext, ptr %20, i32 0, i32 2
  %22 = load ptr, ptr %21, align 8, !tbaa !59
  %23 = load ptr, ptr %6, align 8, !tbaa !57
  %24 = getelementptr inbounds nuw %struct.AVFormatContext, ptr %23, i32 0, i32 12
  %25 = load ptr, ptr %24, align 8, !tbaa !86
  %26 = call i32 @av_guess_codec(ptr noundef %22, ptr noundef null, ptr noundef %25, ptr noundef null, i32 noundef 1)
  %27 = icmp eq i32 %26, 0
  br i1 %27, label %28, label %29

28:                                               ; preds = %2
  store i32 0, ptr %3, align 4
  store i32 1, ptr %9, align 4
  br label %153

29:                                               ; preds = %2
  call void @llvm.lifetime.start.p0(i64 4, ptr %10) #12
  store i32 0, ptr %10, align 4, !tbaa !4
  br label %30

30:                                               ; preds = %141, %29
  %31 = load i32, ptr %10, align 4, !tbaa !4
  %32 = load i32, ptr @nb_input_files, align 4, !tbaa !4
  %33 = icmp slt i32 %31, %32
  br i1 %33, label %35, label %34

34:                                               ; preds = %30
  store i32 2, ptr %9, align 4
  call void @llvm.lifetime.end.p0(i64 4, ptr %10) #12
  br label %144

35:                                               ; preds = %30
  call void @llvm.lifetime.start.p0(i64 8, ptr %11) #12
  %36 = load ptr, ptr @input_files, align 8, !tbaa !176
  %37 = load i32, ptr %10, align 4, !tbaa !4
  %38 = sext i32 %37 to i64
  %39 = getelementptr inbounds ptr, ptr %36, i64 %38
  %40 = load ptr, ptr %39, align 8, !tbaa !178
  store ptr %40, ptr %11, align 8, !tbaa !178
  call void @llvm.lifetime.start.p0(i64 8, ptr %12) #12
  store ptr null, ptr %12, align 8, !tbaa !255
  call void @llvm.lifetime.start.p0(i64 4, ptr %13) #12
  store i32 0, ptr %13, align 4, !tbaa !4
  call void @llvm.lifetime.start.p0(i64 4, ptr %14) #12
  store i32 0, ptr %14, align 4, !tbaa !4
  br label %41

41:                                               ; preds = %113, %35
  %42 = load i32, ptr %14, align 4, !tbaa !4
  %43 = load ptr, ptr %11, align 8, !tbaa !178
  %44 = getelementptr inbounds nuw %struct.InputFile, ptr %43, i32 0, i32 9
  %45 = load i32, ptr %44, align 8, !tbaa !257
  %46 = icmp slt i32 %42, %45
  br i1 %46, label %48, label %47

47:                                               ; preds = %41
  store i32 5, ptr %9, align 4
  call void @llvm.lifetime.end.p0(i64 4, ptr %14) #12
  br label %116

48:                                               ; preds = %41
  call void @llvm.lifetime.start.p0(i64 8, ptr %15) #12
  %49 = load ptr, ptr %11, align 8, !tbaa !178
  %50 = getelementptr inbounds nuw %struct.InputFile, ptr %49, i32 0, i32 8
  %51 = load ptr, ptr %50, align 8, !tbaa !258
  %52 = load i32, ptr %14, align 4, !tbaa !4
  %53 = sext i32 %52 to i64
  %54 = getelementptr inbounds ptr, ptr %51, i64 %53
  %55 = load ptr, ptr %54, align 8, !tbaa !255
  store ptr %55, ptr %15, align 8, !tbaa !255
  call void @llvm.lifetime.start.p0(i64 4, ptr %16) #12
  %56 = load ptr, ptr %15, align 8, !tbaa !255
  %57 = getelementptr inbounds nuw %struct.InputStream, ptr %56, i32 0, i32 4
  %58 = load i32, ptr %57, align 8, !tbaa !259
  %59 = icmp eq i32 %58, 48
  br i1 %59, label %69, label %60

60:                                               ; preds = %48
  %61 = load ptr, ptr %15, align 8, !tbaa !255
  %62 = getelementptr inbounds nuw %struct.InputStream, ptr %61, i32 0, i32 3
  %63 = load ptr, ptr %62, align 8, !tbaa !191
  %64 = getelementptr inbounds nuw %struct.AVStream, ptr %63, i32 0, i32 3
  %65 = load ptr, ptr %64, align 8, !tbaa !260
  %66 = getelementptr inbounds nuw %struct.AVCodecParameters, ptr %65, i32 0, i32 0
  %67 = load i32, ptr %66, align 8, !tbaa !261
  %68 = icmp ne i32 %67, 1
  br i1 %68, label %69, label %70

69:                                               ; preds = %60, %48
  store i32 7, ptr %9, align 4
  br label %110

70:                                               ; preds = %60
  %71 = load ptr, ptr %15, align 8, !tbaa !255
  %72 = getelementptr inbounds nuw %struct.InputStream, ptr %71, i32 0, i32 3
  %73 = load ptr, ptr %72, align 8, !tbaa !191
  %74 = getelementptr inbounds nuw %struct.AVStream, ptr %73, i32 0, i32 3
  %75 = load ptr, ptr %74, align 8, !tbaa !260
  %76 = getelementptr inbounds nuw %struct.AVCodecParameters, ptr %75, i32 0, i32 24
  %77 = getelementptr inbounds nuw %struct.AVChannelLayout, ptr %76, i32 0, i32 1
  %78 = load i32, ptr %77, align 4, !tbaa !268
  %79 = load ptr, ptr %15, align 8, !tbaa !255
  %80 = getelementptr inbounds nuw %struct.InputStream, ptr %79, i32 0, i32 3
  %81 = load ptr, ptr %80, align 8, !tbaa !191
  %82 = getelementptr inbounds nuw %struct.AVStream, ptr %81, i32 0, i32 15
  %83 = load i32, ptr %82, align 8, !tbaa !265
  %84 = and i32 %83, 2
  %85 = icmp ne i32 %84, 0
  %86 = xor i1 %85, true
  %87 = xor i1 %86, true
  %88 = zext i1 %87 to i32
  %89 = mul nsw i32 100000000, %88
  %90 = add nsw i32 %78, %89
  %91 = load ptr, ptr %15, align 8, !tbaa !255
  %92 = getelementptr inbounds nuw %struct.InputStream, ptr %91, i32 0, i32 3
  %93 = load ptr, ptr %92, align 8, !tbaa !191
  %94 = getelementptr inbounds nuw %struct.AVStream, ptr %93, i32 0, i32 9
  %95 = load i32, ptr %94, align 8, !tbaa !223
  %96 = and i32 %95, 1
  %97 = icmp ne i32 %96, 0
  %98 = xor i1 %97, true
  %99 = xor i1 %98, true
  %100 = zext i1 %99 to i32
  %101 = mul nsw i32 5000000, %100
  %102 = add nsw i32 %90, %101
  store i32 %102, ptr %16, align 4, !tbaa !4
  %103 = load i32, ptr %16, align 4, !tbaa !4
  %104 = load i32, ptr %13, align 4, !tbaa !4
  %105 = icmp sgt i32 %103, %104
  br i1 %105, label %106, label %109

106:                                              ; preds = %70
  %107 = load i32, ptr %16, align 4, !tbaa !4
  store i32 %107, ptr %13, align 4, !tbaa !4
  %108 = load ptr, ptr %15, align 8, !tbaa !255
  store ptr %108, ptr %12, align 8, !tbaa !255
  br label %109

109:                                              ; preds = %106, %70
  store i32 0, ptr %9, align 4
  br label %110

110:                                              ; preds = %109, %69
  call void @llvm.lifetime.end.p0(i64 4, ptr %16) #12
  call void @llvm.lifetime.end.p0(i64 8, ptr %15) #12
  %111 = load i32, ptr %9, align 4
  switch i32 %111, label %155 [
    i32 0, label %112
    i32 7, label %113
  ]

112:                                              ; preds = %110
  br label %113

113:                                              ; preds = %112, %110
  %114 = load i32, ptr %14, align 4, !tbaa !4
  %115 = add nsw i32 %114, 1
  store i32 %115, ptr %14, align 4, !tbaa !4
  br label %41, !llvm.loop !269

116:                                              ; preds = %47
  %117 = load ptr, ptr %12, align 8, !tbaa !255
  %118 = icmp ne ptr %117, null
  br i1 %118, label %119, label %140

119:                                              ; preds = %116
  %120 = load ptr, ptr %12, align 8, !tbaa !255
  %121 = getelementptr inbounds nuw %struct.InputStream, ptr %120, i32 0, i32 3
  %122 = load ptr, ptr %121, align 8, !tbaa !191
  %123 = getelementptr inbounds nuw %struct.AVStream, ptr %122, i32 0, i32 9
  %124 = load i32, ptr %123, align 8, !tbaa !223
  %125 = and i32 %124, 1
  %126 = icmp ne i32 %125, 0
  %127 = xor i1 %126, true
  %128 = xor i1 %127, true
  %129 = zext i1 %128 to i32
  %130 = mul nsw i32 5000000, %129
  %131 = load i32, ptr %13, align 4, !tbaa !4
  %132 = sub nsw i32 %131, %130
  store i32 %132, ptr %13, align 4, !tbaa !4
  %133 = load i32, ptr %13, align 4, !tbaa !4
  %134 = load i32, ptr %8, align 4, !tbaa !4
  %135 = icmp sgt i32 %133, %134
  br i1 %135, label %136, label %139

136:                                              ; preds = %119
  %137 = load i32, ptr %13, align 4, !tbaa !4
  store i32 %137, ptr %8, align 4, !tbaa !4
  %138 = load ptr, ptr %12, align 8, !tbaa !255
  store ptr %138, ptr %7, align 8, !tbaa !255
  br label %139

139:                                              ; preds = %136, %119
  br label %140

140:                                              ; preds = %139, %116
  call void @llvm.lifetime.end.p0(i64 4, ptr %13) #12
  call void @llvm.lifetime.end.p0(i64 8, ptr %12) #12
  call void @llvm.lifetime.end.p0(i64 8, ptr %11) #12
  br label %141

141:                                              ; preds = %140
  %142 = load i32, ptr %10, align 4, !tbaa !4
  %143 = add nsw i32 %142, 1
  store i32 %143, ptr %10, align 4, !tbaa !4
  br label %30, !llvm.loop !270

144:                                              ; preds = %34
  %145 = load ptr, ptr %7, align 8, !tbaa !255
  %146 = icmp ne ptr %145, null
  br i1 %146, label %147, label %152

147:                                              ; preds = %144
  %148 = load ptr, ptr %4, align 8, !tbaa !34
  %149 = load ptr, ptr %5, align 8, !tbaa !13
  %150 = load ptr, ptr %7, align 8, !tbaa !255
  %151 = call i32 @ost_add(ptr noundef %148, ptr noundef %149, i32 noundef 1, ptr noundef %150, ptr noundef null, ptr noundef null, ptr noundef null)
  store i32 %151, ptr %3, align 4
  store i32 1, ptr %9, align 4
  br label %153

152:                                              ; preds = %144
  store i32 0, ptr %3, align 4
  store i32 1, ptr %9, align 4
  br label %153

153:                                              ; preds = %152, %147, %28
  call void @llvm.lifetime.end.p0(i64 4, ptr %8) #12
  call void @llvm.lifetime.end.p0(i64 8, ptr %7) #12
  call void @llvm.lifetime.end.p0(i64 8, ptr %6) #12
  %154 = load i32, ptr %3, align 4
  ret i32 %154

155:                                              ; preds = %110
  unreachable
}