; Function Attrs: nounwind uwtable
define internal i32 @map_auto_audio(ptr noundef %0, ptr noundef %1) #0 {
  %3 = getelementptr inbounds nuw i8, ptr %0, i64 96
  %4 = load ptr, ptr %3, align 8, !tbaa !51
  %5 = getelementptr inbounds nuw i8, ptr %4, i64 16
  %6 = load ptr, ptr %5, align 8, !tbaa !52
  %7 = getelementptr inbounds nuw i8, ptr %4, i64 88
  %8 = load ptr, ptr %7, align 8, !tbaa !181
  %9 = tail call i32 @av_guess_codec(ptr noundef %6, ptr noundef null, ptr noundef %8, ptr noundef null, i32 noundef 1) #16
  %10 = icmp eq i32 %9, 0
  br i1 %10, label %._crit_edge57.thread, label %.preheader

.preheader:                                       ; preds = %2
  %11 = load i32, ptr @nb_input_files, align 4, !tbaa !4
  %12 = icmp sgt i32 %11, 0
  br i1 %12, label %.lr.ph56, label %._crit_edge57.thread

.lr.ph56:                                         ; preds = %.preheader
  %13 = load ptr, ptr @input_files, align 8, !tbaa !110
  %wide.trip.count63 = zext nneg i32 %11 to i64
  br label %14

._crit_edge57:                                    ; preds = %._crit_edge.thread
  %.not = icmp eq ptr %.1, null
  br i1 %.not, label %._crit_edge57.thread, label %57

14:                                               ; preds = %.lr.ph56, %._crit_edge.thread
  %indvars.iv60 = phi i64 [ 0, %.lr.ph56 ], [ %indvars.iv.next61, %._crit_edge.thread ]
  %.03155 = phi ptr [ null, %.lr.ph56 ], [ %.1, %._crit_edge.thread ]
  %.03854 = phi i32 [ 0, %.lr.ph56 ], [ %.139, %._crit_edge.thread ]
  %15 = getelementptr inbounds nuw ptr, ptr %13, i64 %indvars.iv60
  %16 = load ptr, ptr %15, align 8, !tbaa !113
  %17 = getelementptr inbounds nuw i8, ptr %16, i64 72
  %18 = load i32, ptr %17, align 8, !tbaa !345
  %19 = icmp sgt i32 %18, 0
  br i1 %19, label %.lr.ph, label %._crit_edge.thread

.lr.ph:                                           ; preds = %14
  %20 = getelementptr inbounds nuw i8, ptr %16, i64 64
  %21 = load ptr, ptr %20, align 8, !tbaa !115
  %wide.trip.count = zext nneg i32 %18 to i64
  br label %22

._crit_edge:                                      ; preds = %48
  %.not43 = icmp eq ptr %.136, null
  br i1 %.not43, label %._crit_edge.thread, label %49

22:                                               ; preds = %.lr.ph, %48
  %indvars.iv = phi i64 [ 0, %.lr.ph ], [ %indvars.iv.next, %48 ]
  %.03350 = phi i32 [ 0, %.lr.ph ], [ %.134, %48 ]
  %.03549 = phi ptr [ null, %.lr.ph ], [ %.136, %48 ]
  %23 = getelementptr inbounds nuw ptr, ptr %21, i64 %indvars.iv
  %24 = load ptr, ptr %23, align 8, !tbaa !119
  %25 = getelementptr inbounds nuw i8, ptr %24, i64 32
  %26 = load i32, ptr %25, align 8, !tbaa !121
  %27 = icmp eq i32 %26, 48
  br i1 %27, label %48, label %28

28:                                               ; preds = %22
  %29 = getelementptr inbounds nuw i8, ptr %24, i64 24
  %30 = load ptr, ptr %29, align 8, !tbaa !127
  %31 = getelementptr inbounds nuw i8, ptr %30, i64 16
  %32 = load ptr, ptr %31, align 8, !tbaa !128
  %33 = load i32, ptr %32, align 8, !tbaa !133
  %.not44 = icmp eq i32 %33, 1
  br i1 %.not44, label %34, label %48

34:                                               ; preds = %28
  %35 = getelementptr inbounds nuw i8, ptr %32, i64 132
  %36 = load i32, ptr %35, align 4, !tbaa !351
  %37 = getelementptr inbounds nuw i8, ptr %30, i64 200
  %38 = load i32, ptr %37, align 8, !tbaa !349
  %39 = and i32 %38, 2
  %.not45 = icmp eq i32 %39, 0
  %40 = select i1 %.not45, i32 0, i32 100000000
  %41 = add nsw i32 %40, %36
  %42 = getelementptr inbounds nuw i8, ptr %30, i64 64
  %43 = load i32, ptr %42, align 8, !tbaa !306
  %44 = trunc i32 %43 to i1
  %45 = select i1 %44, i32 5000000, i32 0
  %46 = add nsw i32 %41, %45
  %47 = icmp sgt i32 %46, %.03350
  %spec.select = select i1 %47, ptr %24, ptr %.03549
  %spec.select46 = tail call i32 @llvm.smax.i32(i32 %46, i32 %.03350)
  br label %48

48:                                               ; preds = %22, %28, %34
  %.136 = phi ptr [ %spec.select, %34 ], [ %.03549, %28 ], [ %.03549, %22 ]
  %.134 = phi i32 [ %spec.select46, %34 ], [ %.03350, %28 ], [ %.03350, %22 ]
  %indvars.iv.next = add nuw nsw i64 %indvars.iv, 1
  %exitcond.not = icmp eq i64 %indvars.iv.next, %wide.trip.count
  br i1 %exitcond.not, label %._crit_edge, label %22, !llvm.loop !352

49:                                               ; preds = %._crit_edge
  %50 = getelementptr inbounds nuw i8, ptr %.136, i64 24
  %51 = load ptr, ptr %50, align 8, !tbaa !127
  %52 = getelementptr inbounds nuw i8, ptr %51, i64 64
  %53 = load i32, ptr %52, align 8, !tbaa !306
  %54 = trunc i32 %53 to i1
  %.neg = select i1 %54, i32 -5000000, i32 0
  %55 = add nsw i32 %.neg, %.134
  %56 = icmp sgt i32 %55, %.03854
  %spec.select47 = tail call i32 @llvm.smax.i32(i32 %55, i32 %.03854)
  %spec.select48 = select i1 %56, ptr %.136, ptr %.03155
  br label %._crit_edge.thread

._crit_edge.thread:                               ; preds = %14, %49, %._crit_edge
  %.139 = phi i32 [ %.03854, %._crit_edge ], [ %spec.select47, %49 ], [ %.03854, %14 ]
  %.1 = phi ptr [ %.03155, %._crit_edge ], [ %spec.select48, %49 ], [ %.03155, %14 ]
  %indvars.iv.next61 = add nuw nsw i64 %indvars.iv60, 1
  %exitcond64.not = icmp eq i64 %indvars.iv.next61, %wide.trip.count63
  br i1 %exitcond64.not, label %._crit_edge57, label %14, !llvm.loop !353

57:                                               ; preds = %._crit_edge57
  %58 = tail call fastcc i32 @ost_add(ptr noundef %0, ptr noundef %1, i32 noundef 1, ptr noundef nonnull %.1, ptr noundef null, ptr noundef null, ptr noundef null)
  br label %._crit_edge57.thread

._crit_edge57.thread:                             ; preds = %.preheader, %._crit_edge57, %2, %57
  %.0 = phi i32 [ %58, %57 ], [ 0, %2 ], [ 0, %._crit_edge57 ], [ 0, %.preheader ]
  ret i32 %.0
}